; ModuleID = '2/1033.c'
source_filename = "2/1033.c"
target datalayout = "e-m:e-p270:32:32-p271:32:32-p272:64:64-i64:64-f80:128-n8:16:32:64-S128"
target triple = "x86_64-pc-linux-gnu"

@.str = private unnamed_addr constant [3 x i8] c"%d\00", align 1
@.str.1 = private unnamed_addr constant [6 x i8] c"%d %s\00", align 1
@.str.2 = private unnamed_addr constant [7 x i8] c"%c\0A%d\0A\00", align 1
@.str.3 = private unnamed_addr constant [7 x i8] c"shuchu\00", align 1
@.str.4 = private unnamed_addr constant [4 x i8] c"%d\0A\00", align 1

; Function Attrs: noinline nounwind uwtable
define dso_local i32 @main(i32 %0, i8** %1) #0 {
  %3 = alloca i32, align 4
  %4 = alloca i32, align 4
  %5 = alloca i8**, align 8
  %6 = alloca i32, align 4
  %7 = alloca i32, align 4
  %8 = alloca i32, align 4
  %9 = alloca i32, align 4
  %10 = alloca i32, align 4
  %11 = alloca [1000 x i32], align 16
  %12 = alloca [26 x i32], align 16
  %13 = alloca [100 x [27 x i8]], align 16
  %14 = alloca i8, align 1
  store i32 0, i32* %3, align 4
  store i32 %0, i32* %4, align 4
  store i8** %1, i8*** %5, align 8
  %15 = bitcast [26 x i32]* %12 to i8*
  call void @llvm.memset.p0i8.i64(i8* align 16 %15, i8 0, i64 104, i1 false)
  %16 = call i32 (i8*, ...) @__isoc99_scanf(i8* getelementptr inbounds ([3 x i8], [3 x i8]* @.str, i64 0, i64 0), i32* %6)
  store i32 0, i32* %7, align 4
  br label %17

17:                                               ; preds = %58, %2
  %18 = load i32, i32* %7, align 4
  %19 = load i32, i32* %6, align 4
  %20 = icmp slt i32 %18, %19
  br i1 %20, label %21, label %61

21:                                               ; preds = %17
  %22 = load i32, i32* %7, align 4
  %23 = sext i32 %22 to i64
  %24 = getelementptr inbounds [1000 x i32], [1000 x i32]* %11, i64 0, i64 %23
  %25 = load i32, i32* %7, align 4
  %26 = sext i32 %25 to i64
  %27 = getelementptr inbounds [100 x [27 x i8]], [100 x [27 x i8]]* %13, i64 0, i64 %26
  %28 = getelementptr inbounds [27 x i8], [27 x i8]* %27, i64 0, i64 0
  %29 = call i32 (i8*, ...) @__isoc99_scanf(i8* getelementptr inbounds ([6 x i8], [6 x i8]* @.str.1, i64 0, i64 0), i32* %24, i8* %28)
  %30 = load i32, i32* %7, align 4
  %31 = sext i32 %30 to i64
  %32 = getelementptr inbounds [100 x [27 x i8]], [100 x [27 x i8]]* %13, i64 0, i64 %31
  %33 = getelementptr inbounds [27 x i8], [27 x i8]* %32, i64 0, i64 0
  %34 = call i64 @strlen(i8* %33) #5
  %35 = trunc i64 %34 to i32
  store i32 %35, i32* %9, align 4
  store i32 0, i32* %8, align 4
  br label %36

36:                                               ; preds = %54, %21
  %37 = load i32, i32* %8, align 4
  %38 = load i32, i32* %9, align 4
  %39 = icmp slt i32 %37, %38
  br i1 %39, label %40, label %57

40:                                               ; preds = %36
  %41 = load i32, i32* %7, align 4
  %42 = sext i32 %41 to i64
  %43 = getelementptr inbounds [100 x [27 x i8]], [100 x [27 x i8]]* %13, i64 0, i64 %42
  %44 = load i32, i32* %8, align 4
  %45 = sext i32 %44 to i64
  %46 = getelementptr inbounds [27 x i8], [27 x i8]* %43, i64 0, i64 %45
  %47 = load i8, i8* %46, align 1
  %48 = sext i8 %47 to i32
  %49 = sub nsw i32 %48, 65
  %50 = sext i32 %49 to i64
  %51 = getelementptr inbounds [26 x i32], [26 x i32]* %12, i64 0, i64 %50
  %52 = load i32, i32* %51, align 4
  %53 = add nsw i32 %52, 1
  store i32 %53, i32* %51, align 4
  br label %54

54:                                               ; preds = %40
  %55 = load i32, i32* %8, align 4
  %56 = add nsw i32 %55, 1
  store i32 %56, i32* %8, align 4
  br label %36

57:                                               ; preds = %36
  br label %58

58:                                               ; preds = %57
  %59 = load i32, i32* %7, align 4
  %60 = add nsw i32 %59, 1
  store i32 %60, i32* %7, align 4
  br label %17

61:                                               ; preds = %17
  %62 = getelementptr inbounds [26 x i32], [26 x i32]* %12, i64 0, i64 0
  %63 = load i32, i32* %62, align 16
  store i32 %63, i32* %10, align 4
  store i8 65, i8* %14, align 1
  store i32 1, i32* %8, align 4
  br label %64

64:                                               ; preds = %83, %61
  %65 = load i32, i32* %8, align 4
  %66 = icmp slt i32 %65, 26
  br i1 %66, label %67, label %86

67:                                               ; preds = %64
  %68 = load i32, i32* %8, align 4
  %69 = sext i32 %68 to i64
  %70 = getelementptr inbounds [26 x i32], [26 x i32]* %12, i64 0, i64 %69
  %71 = load i32, i32* %70, align 4
  %72 = load i32, i32* %10, align 4
  %73 = icmp sgt i32 %71, %72
  br i1 %73, label %74, label %82

74:                                               ; preds = %67
  %75 = load i32, i32* %8, align 4
  %76 = sext i32 %75 to i64
  %77 = getelementptr inbounds [26 x i32], [26 x i32]* %12, i64 0, i64 %76
  %78 = load i32, i32* %77, align 4
  store i32 %78, i32* %10, align 4
  %79 = load i32, i32* %8, align 4
  %80 = add nsw i32 %79, 65
  %81 = trunc i32 %80 to i8
  store i8 %81, i8* %14, align 1
  br label %82

82:                                               ; preds = %74, %67
  br label %83

83:                                               ; preds = %82
  %84 = load i32, i32* %8, align 4
  %85 = add nsw i32 %84, 1
  store i32 %85, i32* %8, align 4
  br label %64

86:                                               ; preds = %64
  %87 = load i8, i8* %14, align 1
  %88 = sext i8 %87 to i32
  %89 = load i32, i32* %10, align 4
  %90 = call i32 (i8*, ...) @printf(i8* getelementptr inbounds ([7 x i8], [7 x i8]* @.str.2, i64 0, i64 0), i32 %88, i32 %89)
  store i32 0, i32* %7, align 4
  br label %91

91:                                               ; preds = %129, %86
  %92 = load i32, i32* %7, align 4
  %93 = load i32, i32* %6, align 4
  %94 = icmp slt i32 %92, %93
  br i1 %94, label %95, label %132

95:                                               ; preds = %91
  %96 = load i32, i32* %7, align 4
  %97 = sext i32 %96 to i64
  %98 = getelementptr inbounds [100 x [27 x i8]], [100 x [27 x i8]]* %13, i64 0, i64 %97
  %99 = getelementptr inbounds [27 x i8], [27 x i8]* %98, i64 0, i64 0
  %100 = call i64 @strlen(i8* %99) #5
  %101 = trunc i64 %100 to i32
  store i32 %101, i32* %9, align 4
  store i32 0, i32* %8, align 4
  br label %102

102:                                              ; preds = %125, %95
  %103 = load i32, i32* %8, align 4
  %104 = load i32, i32* %9, align 4
  %105 = icmp slt i32 %103, %104
  br i1 %105, label %106, label %128

106:                                              ; preds = %102
  %107 = load i32, i32* %7, align 4
  %108 = sext i32 %107 to i64
  %109 = getelementptr inbounds [100 x [27 x i8]], [100 x [27 x i8]]* %13, i64 0, i64 %108
  %110 = load i32, i32* %8, align 4
  %111 = sext i32 %110 to i64
  %112 = getelementptr inbounds [27 x i8], [27 x i8]* %109, i64 0, i64 %111
  %113 = load i8, i8* %112, align 1
  %114 = sext i8 %113 to i32
  %115 = load i8, i8* %14, align 1
  %116 = sext i8 %115 to i32
  %117 = icmp eq i32 %114, %116
  br i1 %117, label %118, label %124

118:                                              ; preds = %106
  %119 = load i32, i32* %7, align 4
  %120 = sext i32 %119 to i64
  %121 = getelementptr inbounds [100 x [27 x i8]], [100 x [27 x i8]]* %13, i64 0, i64 %120
  %122 = getelementptr inbounds [27 x i8], [27 x i8]* %121, i64 0, i64 0
  %123 = call i8* @strcpy(i8* %122, i8* getelementptr inbounds ([7 x i8], [7 x i8]* @.str.3, i64 0, i64 0)) #6
  br label %128

124:                                              ; preds = %106
  br label %125

125:                                              ; preds = %124
  %126 = load i32, i32* %8, align 4
  %127 = add nsw i32 %126, 1
  store i32 %127, i32* %8, align 4
  br label %102

128:                                              ; preds = %118, %102
  br label %129

129:                                              ; preds = %128
  %130 = load i32, i32* %7, align 4
  %131 = add nsw i32 %130, 1
  store i32 %131, i32* %7, align 4
  br label %91

132:                                              ; preds = %91
  store i32 0, i32* %7, align 4
  br label %133

133:                                              ; preds = %151, %132
  %134 = load i32, i32* %7, align 4
  %135 = load i32, i32* %6, align 4
  %136 = icmp slt i32 %134, %135
  br i1 %136, label %137, label %154

137:                                              ; preds = %133
  %138 = load i32, i32* %7, align 4
  %139 = sext i32 %138 to i64
  %140 = getelementptr inbounds [100 x [27 x i8]], [100 x [27 x i8]]* %13, i64 0, i64 %139
  %141 = getelementptr inbounds [27 x i8], [27 x i8]* %140, i64 0, i64 0
  %142 = call i32 @strcmp(i8* %141, i8* getelementptr inbounds ([7 x i8], [7 x i8]* @.str.3, i64 0, i64 0)) #5
  %143 = icmp eq i32 %142, 0
  br i1 %143, label %144, label %150

144:                                              ; preds = %137
  %145 = load i32, i32* %7, align 4
  %146 = sext i32 %145 to i64
  %147 = getelementptr inbounds [1000 x i32], [1000 x i32]* %11, i64 0, i64 %146
  %148 = load i32, i32* %147, align 4
  %149 = call i32 (i8*, ...) @printf(i8* getelementptr inbounds ([4 x i8], [4 x i8]* @.str.4, i64 0, i64 0), i32 %148)
  br label %150

150:                                              ; preds = %144, %137
  br label %151

151:                                              ; preds = %150
  %152 = load i32, i32* %7, align 4
  %153 = add nsw i32 %152, 1
  store i32 %153, i32* %7, align 4
  br label %133

154:                                              ; preds = %133
  ret i32 0
}

; Function Attrs: argmemonly nounwind willreturn
declare void @llvm.memset.p0i8.i64(i8* nocapture writeonly, i8, i64, i1 immarg) #1

declare dso_local i32 @__isoc99_scanf(i8*, ...) #2

; Function Attrs: nounwind readonly
declare dso_local i64 @strlen(i8*) #3

declare dso_local i32 @printf(i8*, ...) #2

; Function Attrs: nounwind
declare dso_local i8* @strcpy(i8*, i8*) #4

; Function Attrs: nounwind readonly
declare dso_local i32 @strcmp(i8*, i8*) #3


!llvm.module.flags = !{!0}
!llvm.ident = !{!1}

!0 = !{i32 1, !"wchar_size", i32 4}
!1 = !{!"clang version 10.0.0-4ubuntu1 "}
